target datalayout = "e-m:e-p270:32:32-p271:32:32-p272:64:64-i64:64-i128:128-f80:128-n8:16:32:64-S128"
target triple = "x86_64-pc-linux-gnu"

%struct.wtap = type { ptr, ptr, i8, i32, i32, ptr, ptr, ptr, i32, ptr, ptr, ptr, ptr, ptr, ptr, ptr, ptr, ptr, ptr, i32, i32, ptr, ptr, ptr, ptr }
%struct.iptrace_t = type { ptr, i32 }

; Function Attrs: null_pointer_is_valid sspstrong uwtable
define internal void @iptrace_close(ptr noundef %0) #0 {
  %2 = alloca ptr, align 8
  %3 = alloca ptr, align 8
  store ptr %0, ptr %2, align 8
  call void @llvm.lifetime.start.p0(i64 8, ptr %3) #13
  %4 = load ptr, ptr %2, align 8
  %5 = getelementptr inbounds nuw %struct.wtap, ptr %4, i32 0, i32 13
  %6 = load ptr, ptr %5, align 8
  store ptr %6, ptr %3, align 8
  %7 = load ptr, ptr %3, align 8
  %8 = getelementptr inbounds nuw %struct.iptrace_t, ptr %7, i32 0, i32 0
  %9 = load ptr, ptr %8, align 8
  %10 = call i32 @g_hash_table_foreach_remove(ptr noundef %9, ptr noundef @destroy_if_info, ptr noundef null)
  %11 = load ptr, ptr %3, align 8
  %12 = getelementptr inbounds nuw %struct.iptrace_t, ptr %11, i32 0, i32 0
  %13 = load ptr, ptr %12, align 8
  call void @g_hash_table_destroy(ptr noundef %13)
  call void @llvm.lifetime.end.p0(i64 8, ptr %3) #13
  ret void
}