; Function Attrs: null_pointer_is_valid sspstrong uwtable
define internal void @iptrace_close(ptr noundef readonly captures(none) %0) #0 {
  %2 = getelementptr inbounds nuw i8, ptr %0, i64 96
  %3 = load ptr, ptr %2, align 8
  %4 = load ptr, ptr %3, align 8
  %5 = tail call i32 @g_hash_table_foreach_remove(ptr noundef %4, ptr noundef nonnull @destroy_if_info, ptr noundef null)
  %6 = load ptr, ptr %3, align 8
  tail call void @g_hash_table_destroy(ptr noundef %6)
  ret void
}